; Function Attrs: mustprogress ssp uwtable
define hidden void @_ZN6open3d2ml22pybind_ml_declarationsERN8pybind117module_E(ptr noundef nonnull align 8 dereferenceable(8) %0) local_unnamed_addr #5 personality ptr @__gxx_personality_v0 {
  %2 = alloca %"class.pybind11::module_", align 8
  call void @llvm.lifetime.start.p0(i64 8, ptr nonnull %2) #28
  call void @_ZN8pybind117module_13def_submoduleEPKcS2_(ptr dead_on_unwind nonnull writable sret(%"class.pybind11::module_") align 8 %2, ptr noundef nonnull align 8 dereferenceable(8) %0, ptr noundef nonnull @.str, ptr noundef null)
  invoke void @_ZN6open3d2ml7contrib27pybind_contrib_declarationsERN8pybind117module_E(ptr noundef nonnull align 8 dereferenceable(8) %2)
          to label %3 unwind label %15

3:                                                ; preds = %1
  %4 = load ptr, ptr %2, align 8, !tbaa !112
  %.not.i.i.i = icmp eq ptr %4, null
  br i1 %.not.i.i.i, label %_ZN8pybind116objectD2Ev.exit, label %5

5:                                                ; preds = %3
  %6 = load i64, ptr %4, align 8, !tbaa !111
  %7 = and i64 %6, 2147483648
  %.not2.i.i.i = icmp eq i64 %7, 0
  br i1 %.not2.i.i.i, label %8, label %_ZN8pybind116objectD2Ev.exit

8:                                                ; preds = %5
  %9 = add nsw i64 %6, -1
  store i64 %9, ptr %4, align 8, !tbaa !111
  %10 = icmp eq i64 %9, 0
  br i1 %10, label %11, label %_ZN8pybind116objectD2Ev.exit

11:                                               ; preds = %8
  invoke void @_Py_Dealloc(ptr noundef nonnull %4)
          to label %_ZN8pybind116objectD2Ev.exit unwind label %12

12:                                               ; preds = %11
  %13 = landingpad { ptr, i32 }
          catch ptr null
  %14 = extractvalue { ptr, i32 } %13, 0
  call void @__clang_call_terminate(ptr %14) #29
  unreachable

_ZN8pybind116objectD2Ev.exit:                     ; preds = %3, %5, %8, %11
  call void @llvm.lifetime.end.p0(i64 8, ptr nonnull %2) #28
  ret void

15:                                               ; preds = %1
  %16 = landingpad { ptr, i32 }
          cleanup
  call void @_ZN8pybind116objectD2Ev(ptr noundef nonnull align 8 dereferenceable(8) %2) #28
  call void @llvm.lifetime.end.p0(i64 8, ptr nonnull %2) #28
  resume { ptr, i32 } %16
}